target datalayout = "e-m:e-p270:32:32-p271:32:32-p272:64:64-i64:64-i128:128-f80:128-n8:16:32:64-S128"
target triple = "x86_64-pc-linux-gnu"

%struct.GCRef = type { i64 }

; Function Attrs: alwaysinline nounwind uwtable
define internal i32 @bcwrite_ktabk_lt(ptr noundef %0, ptr noundef %1) #2 {
  %3 = alloca i32, align 4
  %4 = alloca ptr, align 8
  %5 = alloca ptr, align 8
  %6 = alloca i32, align 4
  %7 = alloca i32, align 4
  %8 = alloca i32, align 4
  store ptr %0, ptr %4, align 8, !tbaa !89
  store ptr %1, ptr %5, align 8, !tbaa !89
  call void @llvm.lifetime.start.p0(i64 4, ptr %6) #7
  %9 = load ptr, ptr %4, align 8, !tbaa !89
  %10 = load i64, ptr %9, align 8, !tbaa !50
  %11 = ashr i64 %10, 47
  %12 = trunc i64 %11 to i32
  store i32 %12, ptr %6, align 4, !tbaa !12
  call void @llvm.lifetime.start.p0(i64 4, ptr %7) #7
  %13 = load ptr, ptr %5, align 8, !tbaa !89
  %14 = load i64, ptr %13, align 8, !tbaa !50
  %15 = ashr i64 %14, 47
  %16 = trunc i64 %15 to i32
  store i32 %16, ptr %7, align 4, !tbaa !12
  %17 = load i32, ptr %6, align 4, !tbaa !12
  %18 = load i32, ptr %7, align 4, !tbaa !12
  %19 = icmp ne i32 %17, %18
  br i1 %19, label %20, label %25

20:                                               ; preds = %2
  %21 = load i32, ptr %6, align 4, !tbaa !12
  %22 = load i32, ptr %7, align 4, !tbaa !12
  %23 = icmp ult i32 %21, %22
  %24 = zext i1 %23 to i32
  store i32 %24, ptr %3, align 4
  store i32 1, ptr %8, align 4
  br label %49

25:                                               ; preds = %2
  %26 = load i32, ptr %6, align 4, !tbaa !12
  %27 = icmp eq i32 %26, -5
  br i1 %27, label %28, label %42

28:                                               ; preds = %25
  %29 = load ptr, ptr %4, align 8, !tbaa !89
  %30 = getelementptr inbounds nuw %struct.GCRef, ptr %29, i32 0, i32 0
  %31 = load i64, ptr %30, align 8, !tbaa !50
  %32 = and i64 %31, 140737488355327
  %33 = inttoptr i64 %32 to ptr
  %34 = load ptr, ptr %5, align 8, !tbaa !89
  %35 = getelementptr inbounds nuw %struct.GCRef, ptr %34, i32 0, i32 0
  %36 = load i64, ptr %35, align 8, !tbaa !50
  %37 = and i64 %36, 140737488355327
  %38 = inttoptr i64 %37 to ptr
  %39 = call i32 @lj_str_cmp(ptr noundef %33, ptr noundef %38)
  %40 = icmp slt i32 %39, 0
  %41 = zext i1 %40 to i32
  store i32 %41, ptr %3, align 4
  store i32 1, ptr %8, align 4
  br label %49

42:                                               ; preds = %25
  %43 = load ptr, ptr %4, align 8, !tbaa !89
  %44 = load i64, ptr %43, align 8, !tbaa !50
  %45 = load ptr, ptr %5, align 8, !tbaa !89
  %46 = load i64, ptr %45, align 8, !tbaa !50
  %47 = icmp ult i64 %44, %46
  %48 = zext i1 %47 to i32
  store i32 %48, ptr %3, align 4
  store i32 1, ptr %8, align 4
  br label %49

49:                                               ; preds = %42, %28, %20
  call void @llvm.lifetime.end.p0(i64 4, ptr %7) #7
  call void @llvm.lifetime.end.p0(i64 4, ptr %6) #7
  %50 = load i32, ptr %3, align 4
  ret i32 %50
}

; Function Attrs: nounwind uwtable
define internal void @bcwrite_ktabk_heap_insert(ptr noundef %0, i32 noundef %1, i32 noundef %2, ptr noundef %3) #0 {
  %5 = alloca ptr, align 8
  %6 = alloca i32, align 4
  %7 = alloca i32, align 4
  %8 = alloca ptr, align 8
  %9 = alloca i32, align 4
  %10 = alloca ptr, align 8
  %11 = alloca ptr, align 8
  %12 = alloca i32, align 4
  store ptr %0, ptr %5, align 8, !tbaa !106
  store i32 %1, ptr %6, align 4, !tbaa !12
  store i32 %2, ptr %7, align 4, !tbaa !12
  store ptr %3, ptr %8, align 8, !tbaa !89
  call void @llvm.lifetime.start.p0(i64 4, ptr %9) #7
  br label %13

13:                                               ; preds = %60, %4
  %14 = load i32, ptr %6, align 4, !tbaa !12
  %15 = mul i32 %14, 2
  %16 = add i32 %15, 1
  store i32 %16, ptr %9, align 4, !tbaa !12
  %17 = load i32, ptr %7, align 4, !tbaa !12
  %18 = icmp ult i32 %16, %17
  br i1 %18, label %19, label %61

19:                                               ; preds = %13
  call void @llvm.lifetime.start.p0(i64 8, ptr %10) #7
  %20 = load ptr, ptr %5, align 8, !tbaa !106
  %21 = load i32, ptr %9, align 4, !tbaa !12
  %22 = zext i32 %21 to i64
  %23 = getelementptr inbounds nuw ptr, ptr %20, i64 %22
  %24 = load ptr, ptr %23, align 8, !tbaa !89
  store ptr %24, ptr %10, align 8, !tbaa !89
  %25 = load i32, ptr %9, align 4, !tbaa !12
  %26 = add i32 %25, 1
  %27 = load i32, ptr %7, align 4, !tbaa !12
  %28 = icmp ult i32 %26, %27
  br i1 %28, label %29, label %45

29:                                               ; preds = %19
  call void @llvm.lifetime.start.p0(i64 8, ptr %11) #7
  %30 = load ptr, ptr %5, align 8, !tbaa !106
  %31 = load i32, ptr %9, align 4, !tbaa !12
  %32 = add i32 %31, 1
  %33 = zext i32 %32 to i64
  %34 = getelementptr inbounds nuw ptr, ptr %30, i64 %33
  %35 = load ptr, ptr %34, align 8, !tbaa !89
  store ptr %35, ptr %11, align 8, !tbaa !89
  %36 = load ptr, ptr %11, align 8, !tbaa !89
  %37 = load ptr, ptr %10, align 8, !tbaa !89
  %38 = call i32 @bcwrite_ktabk_lt(ptr noundef %36, ptr noundef %37)
  %39 = icmp ne i32 %38, 0
  br i1 %39, label %40, label %44

40:                                               ; preds = %29
  %41 = load ptr, ptr %11, align 8, !tbaa !89
  store ptr %41, ptr %10, align 8, !tbaa !89
  %42 = load i32, ptr %9, align 4, !tbaa !12
  %43 = add i32 %42, 1
  store i32 %43, ptr %9, align 4, !tbaa !12
  br label %44

44:                                               ; preds = %40, %29
  call void @llvm.lifetime.end.p0(i64 8, ptr %11) #7
  br label %45

45:                                               ; preds = %44, %19
  %46 = load ptr, ptr %8, align 8, !tbaa !89
  %47 = load ptr, ptr %10, align 8, !tbaa !89
  %48 = call i32 @bcwrite_ktabk_lt(ptr noundef %46, ptr noundef %47)
  %49 = icmp ne i32 %48, 0
  br i1 %49, label %50, label %51

50:                                               ; preds = %45
  store i32 3, ptr %12, align 4
  br label %58

51:                                               ; preds = %45
  %52 = load ptr, ptr %10, align 8, !tbaa !89
  %53 = load ptr, ptr %5, align 8, !tbaa !106
  %54 = load i32, ptr %6, align 4, !tbaa !12
  %55 = zext i32 %54 to i64
  %56 = getelementptr inbounds nuw ptr, ptr %53, i64 %55
  store ptr %52, ptr %56, align 8, !tbaa !89
  %57 = load i32, ptr %9, align 4, !tbaa !12
  store i32 %57, ptr %6, align 4, !tbaa !12
  store i32 0, ptr %12, align 4
  br label %58

58:                                               ; preds = %51, %50
  call void @llvm.lifetime.end.p0(i64 8, ptr %10) #7
  %59 = load i32, ptr %12, align 4
  switch i32 %59, label %67 [
    i32 0, label %60
    i32 3, label %61
  ]

60:                                               ; preds = %58
  br label %13, !llvm.loop !108

61:                                               ; preds = %58, %13
  %62 = load ptr, ptr %8, align 8, !tbaa !89
  %63 = load ptr, ptr %5, align 8, !tbaa !106
  %64 = load i32, ptr %6, align 4, !tbaa !12
  %65 = zext i32 %64 to i64
  %66 = getelementptr inbounds nuw ptr, ptr %63, i64 %65
  store ptr %62, ptr %66, align 8, !tbaa !89
  call void @llvm.lifetime.end.p0(i64 4, ptr %9) #7
  ret void

67:                                               ; preds = %58
  unreachable
}