; Function Attrs: nounwind uwtable
define internal fastcc void @bcwrite_ktabk_heap_insert(ptr noundef captures(none) %0, i32 noundef range(i32 0, -1) %1, i32 noundef %2, ptr noundef %3) unnamed_addr #0 {
  %5 = shl i32 %1, 1
  %6 = or disjoint i32 %5, 1
  %7 = icmp ult i32 %6, %2
  br i1 %7, label %.lr.ph, label %.thread

.lr.ph:                                           ; preds = %4, %51
  %8 = phi i32 [ %55, %51 ], [ %6, %4 ]
  %9 = phi i32 [ %54, %51 ], [ %5, %4 ]
  %.02138 = phi i32 [ %.024, %51 ], [ %1, %4 ]
  %10 = zext i32 %8 to i64
  %11 = getelementptr inbounds nuw ptr, ptr %0, i64 %10
  %12 = load ptr, ptr %11, align 8, !tbaa !89
  %13 = add nuw i32 %9, 2
  %14 = icmp ult i32 %13, %2
  br i1 %14, label %15, label %36

15:                                               ; preds = %.lr.ph
  %16 = zext i32 %13 to i64
  %17 = getelementptr inbounds nuw ptr, ptr %0, i64 %16
  %18 = load ptr, ptr %17, align 8, !tbaa !89
  %19 = load i64, ptr %18, align 8, !tbaa !47
  %20 = ashr i64 %19, 47
  %21 = load i64, ptr %12, align 8, !tbaa !47
  %22 = ashr i64 %21, 47
  %.not.i = icmp eq i64 %20, %22
  br i1 %.not.i, label %25, label %23

23:                                               ; preds = %15
  %24 = icmp uge i64 %20, %22
  br label %bcwrite_ktabk_lt.exit

25:                                               ; preds = %15
  %26 = icmp eq i64 %20, -5
  br i1 %26, label %27, label %34

27:                                               ; preds = %25
  %28 = and i64 %19, 140737488355327
  %29 = inttoptr i64 %28 to ptr
  %30 = and i64 %21, 140737488355327
  %31 = inttoptr i64 %30 to ptr
  %32 = tail call i32 @lj_str_cmp(ptr noundef %29, ptr noundef %31) #7
  %33 = icmp sgt i32 %32, -1
  br label %bcwrite_ktabk_lt.exit

34:                                               ; preds = %25
  %35 = icmp uge i64 %19, %21
  br label %bcwrite_ktabk_lt.exit

bcwrite_ktabk_lt.exit:                            ; preds = %23, %27, %34
  %.0.i = phi i1 [ %24, %23 ], [ %33, %27 ], [ %35, %34 ]
  %spec.select = select i1 %.0.i, i32 %8, i32 %13
  %spec.select30 = select i1 %.0.i, ptr %12, ptr %18
  br label %36

36:                                               ; preds = %bcwrite_ktabk_lt.exit, %.lr.ph
  %.024 = phi i32 [ %spec.select, %bcwrite_ktabk_lt.exit ], [ %8, %.lr.ph ]
  %.022 = phi ptr [ %spec.select30, %bcwrite_ktabk_lt.exit ], [ %12, %.lr.ph ]
  %37 = load i64, ptr %3, align 8, !tbaa !47
  %38 = ashr i64 %37, 47
  %39 = load i64, ptr %.022, align 8, !tbaa !47
  %40 = ashr i64 %39, 47
  %.not.i31 = icmp eq i64 %38, %40
  br i1 %.not.i31, label %42, label %41

41:                                               ; preds = %36
  %.not = icmp ult i64 %38, %40
  br i1 %.not, label %.thread, label %51

42:                                               ; preds = %36
  %43 = icmp eq i64 %38, -5
  br i1 %43, label %44, label %bcwrite_ktabk_lt.exit34

44:                                               ; preds = %42
  %45 = and i64 %37, 140737488355327
  %46 = inttoptr i64 %45 to ptr
  %47 = and i64 %39, 140737488355327
  %48 = inttoptr i64 %47 to ptr
  %49 = tail call i32 @lj_str_cmp(ptr noundef %46, ptr noundef %48) #7
  %50 = icmp sgt i32 %49, -1
  br i1 %50, label %51, label %.thread

bcwrite_ktabk_lt.exit34:                          ; preds = %42
  %.not40 = icmp ult i64 %37, %39
  br i1 %.not40, label %.thread, label %51

51:                                               ; preds = %44, %41, %bcwrite_ktabk_lt.exit34
  %52 = zext i32 %.02138 to i64
  %53 = getelementptr inbounds nuw ptr, ptr %0, i64 %52
  store ptr %.022, ptr %53, align 8, !tbaa !89
  %54 = shl i32 %.024, 1
  %55 = or disjoint i32 %54, 1
  %56 = icmp ult i32 %55, %2
  br i1 %56, label %.lr.ph, label %.thread

.thread:                                          ; preds = %51, %bcwrite_ktabk_lt.exit34, %41, %44, %4
  %.021.lcssa = phi i32 [ %1, %4 ], [ %.02138, %44 ], [ %.02138, %41 ], [ %.02138, %bcwrite_ktabk_lt.exit34 ], [ %.024, %51 ]
  %57 = zext i32 %.021.lcssa to i64
  %58 = getelementptr inbounds nuw ptr, ptr %0, i64 %57
  store ptr %3, ptr %58, align 8, !tbaa !89
  ret void
}